target datalayout = "e-m:e-p270:32:32-p271:32:32-p272:64:64-i64:64-i128:128-f80:128-n8:16:32:64-S128"
target triple = "x86_64-pc-linux-gnu"

%struct.expert_field = type { i32, i32 }

@hf_application_parameter = internal global i32 0, align 4
@hf_application_parameter_length = internal global i32 0, align 4
@hf_application_parameter_data = internal global i32 0, align 4
@hf_bpp_application_parameter_id = internal global i32 0, align 4
@hf_bpp_application_parameter_data_offset = internal global i32 0, align 4
@hf_bpp_application_parameter_data_count = internal global i32 0, align 4
@hf_bpp_application_parameter_data_job_id = internal global i32 0, align 4
@hf_bpp_application_parameter_data_file_size = internal global i32 0, align 4
@ett_obex_application_parameters = internal global i32 0, align 4
@ei_application_parameter_length_bad = internal global %struct.expert_field zeroinitializer, align 4
@.str.702 = private unnamed_addr constant [8 x i8] c"Unknown\00", align 1
@.str.776 = private unnamed_addr constant [14 x i8] c"Parameter: %s\00", align 1
@.str.777 = private unnamed_addr constant [82 x i8] c"According to the specification this parameter length should be 4, but there is %i\00", align 1

; Function Attrs: null_pointer_is_valid sspstrong uwtable
define internal i32 @dissect_obex_application_parameter_bt_bpp(ptr noundef %0, ptr noundef %1, ptr noundef %2, ptr noundef %3) #0 {
  %5 = alloca ptr, align 8
  %6 = alloca ptr, align 8
  %7 = alloca ptr, align 8
  %8 = alloca ptr, align 8
  %9 = alloca ptr, align 8
  %10 = alloca ptr, align 8
  %11 = alloca ptr, align 8
  %12 = alloca i8, align 1
  %13 = alloca i32, align 4
  %14 = alloca i32, align 4
  %15 = alloca i32, align 4
  store ptr %0, ptr %5, align 8
  store ptr %1, ptr %6, align 8
  store ptr %2, ptr %7, align 8
  store ptr %3, ptr %8, align 8
  call void @llvm.lifetime.start.p0(i64 8, ptr %9) #7
  call void @llvm.lifetime.start.p0(i64 8, ptr %10) #7
  call void @llvm.lifetime.start.p0(i64 8, ptr %11) #7
  call void @llvm.lifetime.start.p0(i64 1, ptr %12) #7
  call void @llvm.lifetime.start.p0(i64 4, ptr %13) #7
  store i32 0, ptr %13, align 4
  call void @llvm.lifetime.start.p0(i64 4, ptr %14) #7
  call void @llvm.lifetime.start.p0(i64 4, ptr %15) #7
  %16 = load ptr, ptr %5, align 8
  %17 = call i32 @tvb_reported_length(ptr noundef %16)
  store i32 %17, ptr %14, align 4
  br label %18

18:                                               ; preds = %105, %4
  %19 = load i32, ptr %14, align 4
  %20 = icmp sgt i32 %19, 0
  br i1 %20, label %21, label %113

21:                                               ; preds = %18
  %22 = load ptr, ptr %5, align 8
  %23 = load i32, ptr %13, align 4
  %24 = call zeroext i8 @tvb_get_uint8(ptr noundef %22, i32 noundef %23)
  store i8 %24, ptr %12, align 1
  %25 = load ptr, ptr %5, align 8
  %26 = load i32, ptr %13, align 4
  %27 = add i32 %26, 1
  %28 = call zeroext i8 @tvb_get_uint8(ptr noundef %25, i32 noundef %27)
  %29 = zext i8 %28 to i32
  store i32 %29, ptr %15, align 4
  %30 = load ptr, ptr %7, align 8
  %31 = load i32, ptr @hf_application_parameter, align 4
  %32 = load ptr, ptr %5, align 8
  %33 = load i32, ptr %13, align 4
  %34 = load i32, ptr %15, align 4
  %35 = add i32 %34, 2
  %36 = load i8, ptr %12, align 1
  %37 = zext i8 %36 to i32
  %38 = call ptr @val_to_str_const(i32 noundef %37, ptr noundef @bpp_application_parameters_vals, ptr noundef @.str.702)
  %39 = call ptr (ptr, i32, ptr, i32, i32, ptr, ...) @proto_tree_add_none_format(ptr noundef %30, i32 noundef %31, ptr noundef %32, i32 noundef %33, i32 noundef %35, ptr noundef @.str.776, ptr noundef %38)
  store ptr %39, ptr %10, align 8
  %40 = load ptr, ptr %10, align 8
  %41 = load i32, ptr @ett_obex_application_parameters, align 4
  %42 = call ptr @proto_item_add_subtree(ptr noundef %40, i32 noundef %41)
  store ptr %42, ptr %11, align 8
  %43 = load ptr, ptr %11, align 8
  %44 = load i32, ptr @hf_bpp_application_parameter_id, align 4
  %45 = load ptr, ptr %5, align 8
  %46 = load i32, ptr %13, align 4
  %47 = call ptr @proto_tree_add_item(ptr noundef %43, i32 noundef %44, ptr noundef %45, i32 noundef %46, i32 noundef 1, i32 noundef 0)
  %48 = load i32, ptr %13, align 4
  %49 = add i32 %48, 1
  store i32 %49, ptr %13, align 4
  %50 = load ptr, ptr %11, align 8
  %51 = load i32, ptr @hf_application_parameter_length, align 4
  %52 = load ptr, ptr %5, align 8
  %53 = load i32, ptr %13, align 4
  %54 = call ptr @proto_tree_add_item(ptr noundef %50, i32 noundef %51, ptr noundef %52, i32 noundef %53, i32 noundef 1, i32 noundef 0)
  store ptr %54, ptr %9, align 8
  %55 = load i32, ptr %13, align 4
  %56 = add i32 %55, 1
  store i32 %56, ptr %13, align 4
  %57 = load i32, ptr %15, align 4
  %58 = icmp ne i32 %57, 4
  br i1 %58, label %59, label %70

59:                                               ; preds = %21
  %60 = load ptr, ptr %11, align 8
  %61 = load i32, ptr @hf_application_parameter_data, align 4
  %62 = load ptr, ptr %5, align 8
  %63 = load i32, ptr %13, align 4
  %64 = load i32, ptr %15, align 4
  %65 = call ptr @proto_tree_add_item(ptr noundef %60, i32 noundef %61, ptr noundef %62, i32 noundef %63, i32 noundef %64, i32 noundef 0)
  %66 = load ptr, ptr %6, align 8
  %67 = load ptr, ptr %9, align 8
  %68 = load i32, ptr %15, align 4
  %69 = call ptr (ptr, ptr, ptr, ptr, ...) @expert_add_info_format(ptr noundef %66, ptr noundef %67, ptr noundef @ei_application_parameter_length_bad, ptr noundef @.str.777, i32 noundef %68)
  br label %105

70:                                               ; preds = %21
  %71 = load i8, ptr %12, align 1
  %72 = zext i8 %71 to i32
  switch i32 %72, label %97 [
    i32 1, label %73
    i32 2, label %79
    i32 3, label %85
    i32 4, label %91
  ]

73:                                               ; preds = %70
  %74 = load ptr, ptr %11, align 8
  %75 = load i32, ptr @hf_bpp_application_parameter_data_offset, align 4
  %76 = load ptr, ptr %5, align 8
  %77 = load i32, ptr %13, align 4
  %78 = call ptr @proto_tree_add_item(ptr noundef %74, i32 noundef %75, ptr noundef %76, i32 noundef %77, i32 noundef 4, i32 noundef 0)
  br label %104

79:                                               ; preds = %70
  %80 = load ptr, ptr %11, align 8
  %81 = load i32, ptr @hf_bpp_application_parameter_data_count, align 4
  %82 = load ptr, ptr %5, align 8
  %83 = load i32, ptr %13, align 4
  %84 = call ptr @proto_tree_add_item(ptr noundef %80, i32 noundef %81, ptr noundef %82, i32 noundef %83, i32 noundef 4, i32 noundef 0)
  br label %104

85:                                               ; preds = %70
  %86 = load ptr, ptr %11, align 8
  %87 = load i32, ptr @hf_bpp_application_parameter_data_job_id, align 4
  %88 = load ptr, ptr %5, align 8
  %89 = load i32, ptr %13, align 4
  %90 = call ptr @proto_tree_add_item(ptr noundef %86, i32 noundef %87, ptr noundef %88, i32 noundef %89, i32 noundef 4, i32 noundef 0)
  br label %104

91:                                               ; preds = %70
  %92 = load ptr, ptr %11, align 8
  %93 = load i32, ptr @hf_bpp_application_parameter_data_file_size, align 4
  %94 = load ptr, ptr %5, align 8
  %95 = load i32, ptr %13, align 4
  %96 = call ptr @proto_tree_add_item(ptr noundef %92, i32 noundef %93, ptr noundef %94, i32 noundef %95, i32 noundef 4, i32 noundef 0)
  br label %104

97:                                               ; preds = %70
  %98 = load ptr, ptr %11, align 8
  %99 = load i32, ptr @hf_application_parameter_data, align 4
  %100 = load ptr, ptr %5, align 8
  %101 = load i32, ptr %13, align 4
  %102 = load i32, ptr %15, align 4
  %103 = call ptr @proto_tree_add_item(ptr noundef %98, i32 noundef %99, ptr noundef %100, i32 noundef %101, i32 noundef %102, i32 noundef 0)
  br label %104

104:                                              ; preds = %97, %91, %85, %79, %73
  br label %105

105:                                              ; preds = %104, %59
  %106 = load i32, ptr %15, align 4
  %107 = add i32 2, %106
  %108 = load i32, ptr %14, align 4
  %109 = sub i32 %108, %107
  store i32 %109, ptr %14, align 4
  %110 = load i32, ptr %15, align 4
  %111 = load i32, ptr %13, align 4
  %112 = add i32 %111, %110
  store i32 %112, ptr %13, align 4
  br label %18, !llvm.loop !11

113:                                              ; preds = %18
  %114 = load i32, ptr %13, align 4
  call void @llvm.lifetime.end.p0(i64 4, ptr %15) #7
  call void @llvm.lifetime.end.p0(i64 4, ptr %14) #7
  call void @llvm.lifetime.end.p0(i64 4, ptr %13) #7
  call void @llvm.lifetime.end.p0(i64 1, ptr %12) #7
  call void @llvm.lifetime.end.p0(i64 8, ptr %11) #7
  call void @llvm.lifetime.end.p0(i64 8, ptr %10) #7
  call void @llvm.lifetime.end.p0(i64 8, ptr %9) #7
  ret i32 %114
}