; Function Attrs: null_pointer_is_valid sspstrong uwtable
define internal i32 @dissect_obex_application_parameter_bt_bpp(ptr noundef %0, ptr noundef %1, ptr noundef %2, ptr readnone captures(none) %3) #0 {
  %5 = tail call i32 @tvb_reported_length(ptr noundef %0)
  %6 = icmp sgt i32 %5, 0
  br i1 %6, label %.lr.ph, label %._crit_edge

.lr.ph:                                           ; preds = %4, %43
  %.052 = phi i32 [ %45, %43 ], [ 0, %4 ]
  %.04951 = phi i32 [ %44, %43 ], [ %5, %4 ]
  %7 = tail call zeroext i8 @tvb_get_uint8(ptr noundef %0, i32 noundef %.052)
  %8 = add i32 %.052, 1
  %9 = tail call zeroext i8 @tvb_get_uint8(ptr noundef %0, i32 noundef %8)
  %10 = zext i8 %9 to i32
  %11 = load i32, ptr @hf_application_parameter, align 4
  %12 = add nuw nsw i32 %10, 2
  %13 = zext i8 %7 to i32
  %14 = tail call ptr @val_to_str_const(i32 noundef %13, ptr noundef nonnull @bpp_application_parameters_vals, ptr noundef nonnull @.str.702)
  %15 = tail call ptr (ptr, i32, ptr, i32, i32, ptr, ...) @proto_tree_add_none_format(ptr noundef %2, i32 noundef %11, ptr noundef %0, i32 noundef %.052, i32 noundef %12, ptr noundef nonnull @.str.776, ptr noundef %14)
  %16 = load i32, ptr @ett_obex_application_parameters, align 4
  %17 = tail call ptr @proto_item_add_subtree(ptr noundef %15, i32 noundef %16)
  %18 = load i32, ptr @hf_bpp_application_parameter_id, align 4
  %19 = tail call ptr @proto_tree_add_item(ptr noundef %17, i32 noundef %18, ptr noundef %0, i32 noundef %.052, i32 noundef 1, i32 noundef 0)
  %20 = load i32, ptr @hf_application_parameter_length, align 4
  %21 = tail call ptr @proto_tree_add_item(ptr noundef %17, i32 noundef %20, ptr noundef %0, i32 noundef %8, i32 noundef 1, i32 noundef 0)
  %22 = add i32 %.052, 2
  %.not = icmp eq i8 %9, 4
  br i1 %.not, label %27, label %23

23:                                               ; preds = %.lr.ph
  %24 = load i32, ptr @hf_application_parameter_data, align 4
  %25 = tail call ptr @proto_tree_add_item(ptr noundef %17, i32 noundef %24, ptr noundef %0, i32 noundef %22, i32 noundef %10, i32 noundef 0)
  %26 = tail call ptr (ptr, ptr, ptr, ptr, ...) @expert_add_info_format(ptr noundef %1, ptr noundef %21, ptr noundef nonnull @ei_application_parameter_length_bad, ptr noundef nonnull @.str.777, i32 noundef %10)
  br label %43

27:                                               ; preds = %.lr.ph
  switch i8 %7, label %40 [
    i8 1, label %28
    i8 2, label %31
    i8 3, label %34
    i8 4, label %37
  ]

28:                                               ; preds = %27
  %29 = load i32, ptr @hf_bpp_application_parameter_data_offset, align 4
  %30 = tail call ptr @proto_tree_add_item(ptr noundef %17, i32 noundef %29, ptr noundef %0, i32 noundef %22, i32 noundef 4, i32 noundef 0)
  br label %43

31:                                               ; preds = %27
  %32 = load i32, ptr @hf_bpp_application_parameter_data_count, align 4
  %33 = tail call ptr @proto_tree_add_item(ptr noundef %17, i32 noundef %32, ptr noundef %0, i32 noundef %22, i32 noundef 4, i32 noundef 0)
  br label %43

34:                                               ; preds = %27
  %35 = load i32, ptr @hf_bpp_application_parameter_data_job_id, align 4
  %36 = tail call ptr @proto_tree_add_item(ptr noundef %17, i32 noundef %35, ptr noundef %0, i32 noundef %22, i32 noundef 4, i32 noundef 0)
  br label %43

37:                                               ; preds = %27
  %38 = load i32, ptr @hf_bpp_application_parameter_data_file_size, align 4
  %39 = tail call ptr @proto_tree_add_item(ptr noundef %17, i32 noundef %38, ptr noundef %0, i32 noundef %22, i32 noundef 4, i32 noundef 0)
  br label %43

40:                                               ; preds = %27
  %41 = load i32, ptr @hf_application_parameter_data, align 4
  %42 = tail call ptr @proto_tree_add_item(ptr noundef %17, i32 noundef %41, ptr noundef %0, i32 noundef %22, i32 noundef 4, i32 noundef 0)
  br label %43

43:                                               ; preds = %28, %31, %34, %37, %40, %23
  %44 = sub nsw i32 %.04951, %12
  %45 = add i32 %22, %10
  %46 = icmp sgt i32 %44, 0
  br i1 %46, label %.lr.ph, label %._crit_edge, !llvm.loop !17

._crit_edge:                                      ; preds = %43, %4
  %.0.lcssa = phi i32 [ 0, %4 ], [ %45, %43 ]
  ret i32 %.0.lcssa
}